target datalayout = "e-m:e-p270:32:32-p271:32:32-p272:64:64-i64:64-i128:128-f80:128-n8:16:32:64-S128"
target triple = "x86_64-pc-linux-gnu"

%"class.sat::literal" = type { i32 }
%class.rational = type { %class.mpq }
%class.mpq = type { %class.mpz, %class.mpz }
%class.mpz = type { i32, i8, ptr }
%class.ref_vector = type { %class.ref_vector_core }
%class.ref_vector_core = type { %class.ref_manager_wrapper, %class.ptr_vector }
%class.ref_manager_wrapper = type { ptr }
%class.ptr_vector = type { %class.vector.4 }
%class.vector.4 = type { ptr }
%class.pb_util = type { ptr, i32, %class.vector.289, %class.vector.290, %class.rational }
%class.vector.289 = type { ptr }
%class.vector.290 = type { ptr }
%class.svector.87 = type { %class.vector.88 }
%class.vector.88 = type { ptr }
%class.ptr_vector.164 = type { %class.vector.165 }
%class.vector.165 = type { ptr }
%class.svector.5 = type { %class.vector.6 }
%class.vector.6 = type { ptr }
%class.svector.195 = type { %class.vector.196 }
%class.vector.196 = type { ptr }
%class.uint_set = type { %class.svector.5 }
%class.svector.254 = type { %class.vector.255 }
%class.vector.255 = type { ptr }
%class.svector.11 = type { %class.vector.12 }
%class.vector.12 = type { ptr }
%"class.smt::theory_pb" = type { %"class.smt::theory.base", [3 x i8], %struct.theory_pb_params, %class.svector.291, %class.mpz_manager, %class._scoped_numeral_vector, %class.svector.5, %class.svector.5, %class.svector.195, %class.pb_util, %"struct.smt::theory_pb::stats", i32, i8, i32, i32, %class.uint_set, %class.svector.5, %class.svector.5, i32, %class.svector.195, i32, %class.svector.87, %class.svector.5, i32, %class.svector.195, %class.tracked_uint_set, %class.ref_vector, %class.svector.11, %class.ref_vector, %class.svector.11, %class.vector.295, %class.svector.5 }
%"class.smt::theory.base" = type <{ ptr, i32, [4 x i8], ptr, ptr, %class.ptr_vector.164, %class.svector.5, i32, i8 }>
%struct.theory_pb_params = type <{ i32, i8, [3 x i8] }>
%class.svector.291 = type { %class.vector.292 }
%class.vector.292 = type { ptr }
%class.mpz_manager = type { %class.small_object_allocator, %"class.std::recursive_mutex", [4 x i8], i32, %class.mpz, %class.mpz }
%class.small_object_allocator = type { [32 x ptr], [32 x ptr], i64 }
%"class.std::recursive_mutex" = type { %"class.std::__recursive_mutex_base" }
%"class.std::__recursive_mutex_base" = type { %union.pthread_mutex_t }
%union.pthread_mutex_t = type { %struct.__pthread_mutex_s }
%struct.__pthread_mutex_s = type { i32, i32, i32, i32, i32, i16, i16, %struct.__pthread_internal_list }
%struct.__pthread_internal_list = type { ptr, ptr }
%class._scoped_numeral_vector = type { %class.svector.293, ptr }
%class.svector.293 = type { %class.vector.294 }
%class.vector.294 = type { ptr }
%"struct.smt::theory_pb::stats" = type { i32, i32, i32, i32 }
%class.tracked_uint_set = type { %class.svector.254, %class.svector.5 }
%class.vector.295 = type { ptr }
%"struct.smt::theory_pb::var_info" = type { [2 x ptr], ptr, [2 x ptr], ptr }
%class.vector.303 = type { ptr }

; Function Attrs: mustprogress nounwind uwtable
define linkonce_odr hidden void @_ZN3smt9theory_pb8var_infoC2Ev(ptr noundef nonnull align 8 dereferenceable(48) %0) unnamed_addr #4 comdat align 2 {
  %2 = alloca ptr, align 8
  store ptr %0, ptr %2, align 8, !tbaa !784
  %3 = load ptr, ptr %2, align 8
  %4 = getelementptr inbounds nuw %"struct.smt::theory_pb::var_info", ptr %3, i32 0, i32 1
  store ptr null, ptr %4, align 8, !tbaa !708
  %5 = getelementptr inbounds nuw %"struct.smt::theory_pb::var_info", ptr %3, i32 0, i32 3
  store ptr null, ptr %5, align 8, !tbaa !712
  %6 = getelementptr inbounds nuw %"struct.smt::theory_pb::var_info", ptr %3, i32 0, i32 0
  %7 = getelementptr inbounds [2 x ptr], ptr %6, i64 0, i64 0
  store ptr null, ptr %7, align 8, !tbaa !773
  %8 = getelementptr inbounds nuw %"struct.smt::theory_pb::var_info", ptr %3, i32 0, i32 0
  %9 = getelementptr inbounds [2 x ptr], ptr %8, i64 0, i64 1
  store ptr null, ptr %9, align 8, !tbaa !773
  %10 = getelementptr inbounds nuw %"struct.smt::theory_pb::var_info", ptr %3, i32 0, i32 2
  %11 = getelementptr inbounds [2 x ptr], ptr %10, i64 0, i64 0
  store ptr null, ptr %11, align 8, !tbaa !635
  %12 = getelementptr inbounds nuw %"struct.smt::theory_pb::var_info", ptr %3, i32 0, i32 2
  %13 = getelementptr inbounds [2 x ptr], ptr %12, i64 0, i64 1
  store ptr null, ptr %13, align 8, !tbaa !635
  ret void
}

; Function Attrs: mustprogress nounwind uwtable
define linkonce_odr hidden noundef i32 @_ZNK6vectorIN3smt9theory_pb8var_infoELb0EjE8capacityEv(ptr noundef nonnull align 8 dereferenceable(8) %0) #4 comdat align 2 {
  %2 = alloca i32, align 4
  %3 = alloca ptr, align 8
  store ptr %0, ptr %3, align 8, !tbaa !699
  %4 = load ptr, ptr %3, align 8
  %5 = getelementptr inbounds nuw %class.vector.292, ptr %4, i32 0, i32 0
  %6 = load ptr, ptr %5, align 8, !tbaa !729
  %7 = icmp eq ptr %6, null
  br i1 %7, label %8, label %9

8:                                                ; preds = %1
  store i32 0, ptr %2, align 4
  br label %14

9:                                                ; preds = %1
  %10 = getelementptr inbounds nuw %class.vector.292, ptr %4, i32 0, i32 0
  %11 = load ptr, ptr %10, align 8, !tbaa !729
  %12 = getelementptr inbounds i32, ptr %11, i64 -2
  %13 = load i32, ptr %12, align 4, !tbaa !8
  store i32 %13, ptr %2, align 4
  br label %14

14:                                               ; preds = %9, %8
  %15 = load i32, ptr %2, align 4
  ret i32 %15
}

; Function Attrs: mustprogress nounwind uwtable
define linkonce_odr hidden void @_ZN6vectorIN3smt9theory_pb8var_infoELb0EjE6shrinkEj(ptr noundef nonnull align 8 dereferenceable(8) %0, i32 noundef %1) #4 comdat align 2 {
  %3 = alloca ptr, align 8
  %4 = alloca i32, align 4
  store ptr %0, ptr %3, align 8, !tbaa !699
  store i32 %1, ptr %4, align 4, !tbaa !8
  %5 = load ptr, ptr %3, align 8
  %6 = getelementptr inbounds nuw %class.vector.292, ptr %5, i32 0, i32 0
  %7 = load ptr, ptr %6, align 8, !tbaa !729
  %8 = icmp ne ptr %7, null
  br i1 %8, label %9, label %14

9:                                                ; preds = %2
  %10 = load i32, ptr %4, align 4, !tbaa !8
  %11 = getelementptr inbounds nuw %class.vector.292, ptr %5, i32 0, i32 0
  %12 = load ptr, ptr %11, align 8, !tbaa !729
  %13 = getelementptr inbounds i32, ptr %12, i64 -1
  store i32 %10, ptr %13, align 4, !tbaa !8
  br label %15

14:                                               ; preds = %2
  br label %15

15:                                               ; preds = %14, %9
  ret void
}

; Function Attrs: mustprogress nounwind uwtable
define linkonce_odr hidden void @_ZN6vectorIPN3smt9theory_pb4cardELb0EjEC2Ev(ptr noundef nonnull align 8 dereferenceable(8) %0) unnamed_addr #4 comdat align 2 {
  %2 = alloca ptr, align 8
  store ptr %0, ptr %2, align 8, !tbaa !793
  %3 = load ptr, ptr %2, align 8
  %4 = getelementptr inbounds nuw %class.vector.303, ptr %3, i32 0, i32 0
  store ptr null, ptr %4, align 8, !tbaa !797
  ret void
}

; Function Attrs: mustprogress uwtable
define linkonce_odr hidden void @_ZN6vectorIN3smt9theory_pb8var_infoELb0EjE6resizeEj(ptr noundef nonnull align 8 dereferenceable(8) %0, i32 noundef %1) #6 comdat align 2 {
  %3 = alloca ptr, align 8
  %4 = alloca i32, align 4
  %5 = alloca i32, align 4
  %6 = alloca i32, align 4
  %7 = alloca ptr, align 8
  %8 = alloca ptr, align 8
  store ptr %0, ptr %3, align 8, !tbaa !699
  store i32 %1, ptr %4, align 4, !tbaa !8
  %9 = load ptr, ptr %3, align 8
  call void @llvm.lifetime.start.p0(i64 4, ptr %5) #3
  %10 = call noundef i32 @_ZNK6vectorIN3smt9theory_pb8var_infoELb0EjE4sizeEv(ptr noundef nonnull align 8 dereferenceable(8) %9)
  store i32 %10, ptr %5, align 4, !tbaa !8
  %11 = load i32, ptr %4, align 4, !tbaa !8
  %12 = load i32, ptr %5, align 4, !tbaa !8
  %13 = icmp ule i32 %11, %12
  br i1 %13, label %14, label %16

14:                                               ; preds = %2
  %15 = load i32, ptr %4, align 4, !tbaa !8
  call void @_ZN6vectorIN3smt9theory_pb8var_infoELb0EjE6shrinkEj(ptr noundef nonnull align 8 dereferenceable(8) %9, i32 noundef %15)
  store i32 1, ptr %6, align 4
  br label %47

16:                                               ; preds = %2
  br label %17

17:                                               ; preds = %21, %16
  %18 = load i32, ptr %4, align 4, !tbaa !8
  %19 = call noundef i32 @_ZNK6vectorIN3smt9theory_pb8var_infoELb0EjE8capacityEv(ptr noundef nonnull align 8 dereferenceable(8) %9)
  %20 = icmp ugt i32 %18, %19
  br i1 %20, label %21, label %22

21:                                               ; preds = %17
  call void @_ZN6vectorIN3smt9theory_pb8var_infoELb0EjE13expand_vectorEv(ptr noundef nonnull align 8 dereferenceable(8) %9)
  br label %17, !llvm.loop !783

22:                                               ; preds = %17
  %23 = load i32, ptr %4, align 4, !tbaa !8
  %24 = getelementptr inbounds nuw %class.vector.292, ptr %9, i32 0, i32 0
  %25 = load ptr, ptr %24, align 8, !tbaa !729
  %26 = getelementptr inbounds i32, ptr %25, i64 -1
  store i32 %23, ptr %26, align 4, !tbaa !8
  call void @llvm.lifetime.start.p0(i64 8, ptr %7) #3
  %27 = getelementptr inbounds nuw %class.vector.292, ptr %9, i32 0, i32 0
  %28 = load ptr, ptr %27, align 8, !tbaa !729
  %29 = load i32, ptr %5, align 4, !tbaa !8
  %30 = zext i32 %29 to i64
  %31 = getelementptr inbounds nuw %"struct.smt::theory_pb::var_info", ptr %28, i64 %30
  store ptr %31, ptr %7, align 8, !tbaa !784
  call void @llvm.lifetime.start.p0(i64 8, ptr %8) #3
  %32 = getelementptr inbounds nuw %class.vector.292, ptr %9, i32 0, i32 0
  %33 = load ptr, ptr %32, align 8, !tbaa !729
  %34 = load i32, ptr %4, align 4, !tbaa !8
  %35 = zext i32 %34 to i64
  %36 = getelementptr inbounds nuw %"struct.smt::theory_pb::var_info", ptr %33, i64 %35
  store ptr %36, ptr %8, align 8, !tbaa !784
  br label %37

37:                                               ; preds = %43, %22
  %38 = load ptr, ptr %7, align 8, !tbaa !784
  %39 = load ptr, ptr %8, align 8, !tbaa !784
  %40 = icmp ne ptr %38, %39
  br i1 %40, label %41, label %46

41:                                               ; preds = %37
  %42 = load ptr, ptr %7, align 8, !tbaa !784
  call void @_ZN3smt9theory_pb8var_infoC2Ev(ptr noundef nonnull align 8 dereferenceable(48) %42)
  br label %43

43:                                               ; preds = %41
  %44 = load ptr, ptr %7, align 8, !tbaa !784
  %45 = getelementptr inbounds nuw %"struct.smt::theory_pb::var_info", ptr %44, i32 1
  store ptr %45, ptr %7, align 8, !tbaa !784
  br label %37, !llvm.loop !785

46:                                               ; preds = %37
  call void @llvm.lifetime.end.p0(i64 8, ptr %8) #3
  call void @llvm.lifetime.end.p0(i64 8, ptr %7) #3
  store i32 0, ptr %6, align 4
  br label %47

47:                                               ; preds = %46, %14
  call void @llvm.lifetime.end.p0(i64 4, ptr %5) #3
  %48 = load i32, ptr %6, align 4
  switch i32 %48, label %50 [
    i32 0, label %49
    i32 1, label %49
  ]

49:                                               ; preds = %47, %47
  ret void

50:                                               ; preds = %47
  unreachable
}

; Function Attrs: mustprogress nounwind uwtable
define linkonce_odr hidden noundef i32 @_ZNK6vectorIN3smt9theory_pb8var_infoELb0EjE4sizeEv(ptr noundef nonnull align 8 dereferenceable(8) %0) #4 comdat align 2 {
  %2 = alloca i32, align 4
  %3 = alloca ptr, align 8
  store ptr %0, ptr %3, align 8, !tbaa !699
  %4 = load ptr, ptr %3, align 8
  %5 = getelementptr inbounds nuw %class.vector.292, ptr %4, i32 0, i32 0
  %6 = load ptr, ptr %5, align 8, !tbaa !729
  %7 = icmp eq ptr %6, null
  br i1 %7, label %8, label %9

8:                                                ; preds = %1
  store i32 0, ptr %2, align 4
  br label %14

9:                                                ; preds = %1
  %10 = getelementptr inbounds nuw %class.vector.292, ptr %4, i32 0, i32 0
  %11 = load ptr, ptr %10, align 8, !tbaa !729
  %12 = getelementptr inbounds i32, ptr %11, i64 -1
  %13 = load i32, ptr %12, align 4, !tbaa !8
  store i32 %13, ptr %2, align 4
  br label %14

14:                                               ; preds = %9, %8
  %15 = load i32, ptr %2, align 4
  ret i32 %15
}

; Function Attrs: mustprogress uwtable
define linkonce_odr hidden noundef nonnull align 8 dereferenceable(8) ptr @_ZN6vectorIPN3smt9theory_pb4cardELb0EjE9push_backERKS3_(ptr noundef nonnull align 8 dereferenceable(8) %0, ptr noundef nonnull align 8 dereferenceable(8) %1) #6 comdat align 2 {
  %3 = alloca ptr, align 8
  %4 = alloca ptr, align 8
  store ptr %0, ptr %3, align 8, !tbaa !793
  store ptr %1, ptr %4, align 8, !tbaa !795
  %5 = load ptr, ptr %3, align 8
  %6 = getelementptr inbounds nuw %class.vector.303, ptr %5, i32 0, i32 0
  %7 = load ptr, ptr %6, align 8, !tbaa !797
  %8 = icmp eq ptr %7, null
  br i1 %8, label %19, label %9

9:                                                ; preds = %2
  %10 = getelementptr inbounds nuw %class.vector.303, ptr %5, i32 0, i32 0
  %11 = load ptr, ptr %10, align 8, !tbaa !797
  %12 = getelementptr inbounds i32, ptr %11, i64 -1
  %13 = load i32, ptr %12, align 4, !tbaa !8
  %14 = getelementptr inbounds nuw %class.vector.303, ptr %5, i32 0, i32 0
  %15 = load ptr, ptr %14, align 8, !tbaa !797
  %16 = getelementptr inbounds i32, ptr %15, i64 -2
  %17 = load i32, ptr %16, align 4, !tbaa !8
  %18 = icmp eq i32 %13, %17
  br i1 %18, label %19, label %20

19:                                               ; preds = %9, %2
  call void @_ZN6vectorIPN3smt9theory_pb4cardELb0EjE13expand_vectorEv(ptr noundef nonnull align 8 dereferenceable(8) %5)
  br label %20

20:                                               ; preds = %19, %9
  %21 = getelementptr inbounds nuw %class.vector.303, ptr %5, i32 0, i32 0
  %22 = load ptr, ptr %21, align 8, !tbaa !797
  %23 = getelementptr inbounds nuw %class.vector.303, ptr %5, i32 0, i32 0
  %24 = load ptr, ptr %23, align 8, !tbaa !797
  %25 = getelementptr inbounds i32, ptr %24, i64 -1
  %26 = load i32, ptr %25, align 4, !tbaa !8
  %27 = zext i32 %26 to i64
  %28 = getelementptr inbounds nuw ptr, ptr %22, i64 %27
  %29 = load ptr, ptr %4, align 8, !tbaa !795
  %30 = load ptr, ptr %29, align 8, !tbaa !616
  store ptr %30, ptr %28, align 8, !tbaa !616
  %31 = getelementptr inbounds nuw %class.vector.303, ptr %5, i32 0, i32 0
  %32 = load ptr, ptr %31, align 8, !tbaa !797
  %33 = getelementptr inbounds i32, ptr %32, i64 -1
  %34 = load i32, ptr %33, align 4, !tbaa !8
  %35 = add i32 %34, 1
  store i32 %35, ptr %33, align 4, !tbaa !8
  ret ptr %5
}

; Function Attrs: mustprogress nounwind uwtable
define linkonce_odr hidden void @_ZN10ptr_vectorIN3smt9theory_pb4cardEEC2Ev(ptr noundef nonnull align 8 dereferenceable(8) %0) unnamed_addr #4 comdat align 2 {
  %2 = alloca ptr, align 8
  store ptr %0, ptr %2, align 8, !tbaa !635
  %3 = load ptr, ptr %2, align 8
  call void @_ZN6vectorIPN3smt9theory_pb4cardELb0EjEC2Ev(ptr noundef nonnull align 8 dereferenceable(8) %3) #3
  ret void
}

; Function Attrs: mustprogress nounwind uwtable
define linkonce_odr hidden noundef zeroext i1 @_ZNK3sat7literal4signEv(ptr noundef nonnull align 4 dereferenceable(4) %0) #4 comdat align 2 {
  %2 = alloca ptr, align 8
  store ptr %0, ptr %2, align 8, !tbaa !3
  %3 = load ptr, ptr %2, align 8
  %4 = getelementptr inbounds nuw %"class.sat::literal", ptr %3, i32 0, i32 0
  %5 = load i32, ptr %4, align 4, !tbaa !14
  %6 = zext i32 %5 to i64
  %7 = and i64 %6, 1
  %8 = icmp ne i64 %7, 0
  ret i1 %8
}

; Function Attrs: mustprogress nounwind uwtable
define linkonce_odr hidden noundef nonnull align 8 dereferenceable(48) ptr @_ZN6vectorIN3smt9theory_pb8var_infoELb0EjEixEj(ptr noundef nonnull align 8 dereferenceable(8) %0, i32 noundef %1) #4 comdat align 2 {
  %3 = alloca ptr, align 8
  %4 = alloca i32, align 4
  store ptr %0, ptr %3, align 8, !tbaa !699
  store i32 %1, ptr %4, align 4, !tbaa !8
  %5 = load ptr, ptr %3, align 8
  %6 = getelementptr inbounds nuw %class.vector.292, ptr %5, i32 0, i32 0
  %7 = load ptr, ptr %6, align 8, !tbaa !729
  %8 = load i32, ptr %4, align 4, !tbaa !8
  %9 = zext i32 %8 to i64
  %10 = getelementptr inbounds nuw %"struct.smt::theory_pb::var_info", ptr %7, i64 %9
  ret ptr %10
}

; Function Attrs: mustprogress uwtable
define hidden void @_ZN3smt9theory_pb10init_watchEj(ptr noundef nonnull align 8 dereferenceable(968) %0, i32 noundef %1) #6 align 2 {
  %3 = alloca ptr, align 8
  %4 = alloca i32, align 4
  store ptr %0, ptr %3, align 8, !tbaa !624
  store i32 %1, ptr %4, align 4, !tbaa !8
  %5 = load ptr, ptr %3, align 8
  %6 = getelementptr inbounds nuw %"class.smt::theory_pb", ptr %5, i32 0, i32 3
  %7 = call noundef i32 @_ZNK6vectorIN3smt9theory_pb8var_infoELb0EjE4sizeEv(ptr noundef nonnull align 8 dereferenceable(8) %6)
  %8 = load i32, ptr %4, align 4, !tbaa !8
  %9 = icmp ule i32 %7, %8
  br i1 %9, label %10, label %14

10:                                               ; preds = %2
  %11 = getelementptr inbounds nuw %"class.smt::theory_pb", ptr %5, i32 0, i32 3
  %12 = load i32, ptr %4, align 4, !tbaa !8
  %13 = add i32 %12, 100
  call void @_ZN6vectorIN3smt9theory_pb8var_infoELb0EjE6resizeEj(ptr noundef nonnull align 8 dereferenceable(8) %11, i32 noundef %13)
  br label %14

14:                                               ; preds = %10, %2
  ret void
}

; Function Attrs: mustprogress nounwind uwtable
define linkonce_odr hidden noundef i32 @_ZNK3sat7literal3varEv(ptr noundef nonnull align 4 dereferenceable(4) %0) #4 comdat align 2 {
  %2 = alloca ptr, align 8
  store ptr %0, ptr %2, align 8, !tbaa !3
  %3 = load ptr, ptr %2, align 8
  %4 = getelementptr inbounds nuw %"class.sat::literal", ptr %3, i32 0, i32 0
  %5 = load i32, ptr %4, align 4, !tbaa !14
  %6 = lshr i32 %5, 1
  ret i32 %6
}

; Function Attrs: mustprogress uwtable
define hidden void @_ZN3smt9theory_pb13watch_literalEN3sat7literalEPNS0_4cardE(ptr noundef nonnull align 8 dereferenceable(968) %0, i32 %1, ptr noundef %2) #6 align 2 {
  %4 = alloca %"class.sat::literal", align 4
  %5 = alloca ptr, align 8
  %6 = alloca ptr, align 8
  %7 = alloca ptr, align 8
  %8 = getelementptr inbounds nuw %"class.sat::literal", ptr %4, i32 0, i32 0
  store i32 %1, ptr %8, align 4
  store ptr %0, ptr %5, align 8, !tbaa !624
  store ptr %2, ptr %6, align 8, !tbaa !616
  %9 = load ptr, ptr %5, align 8
  %10 = call noundef i32 @_ZNK3sat7literal3varEv(ptr noundef nonnull align 4 dereferenceable(4) %4)
  call void @_ZN3smt9theory_pb10init_watchEj(ptr noundef nonnull align 8 dereferenceable(968) %9, i32 noundef %10)
  call void @llvm.lifetime.start.p0(i64 8, ptr %7) #3
  %11 = getelementptr inbounds nuw %"class.smt::theory_pb", ptr %9, i32 0, i32 3
  %12 = call noundef i32 @_ZNK3sat7literal3varEv(ptr noundef nonnull align 4 dereferenceable(4) %4)
  %13 = call noundef nonnull align 8 dereferenceable(48) ptr @_ZN6vectorIN3smt9theory_pb8var_infoELb0EjEixEj(ptr noundef nonnull align 8 dereferenceable(8) %11, i32 noundef %12)
  %14 = getelementptr inbounds nuw %"struct.smt::theory_pb::var_info", ptr %13, i32 0, i32 2
  %15 = call noundef zeroext i1 @_ZNK3sat7literal4signEv(ptr noundef nonnull align 4 dereferenceable(4) %4)
  %16 = zext i1 %15 to i64
  %17 = getelementptr inbounds nuw [2 x ptr], ptr %14, i64 0, i64 %16
  %18 = load ptr, ptr %17, align 8, !tbaa !635
  store ptr %18, ptr %7, align 8, !tbaa !635
  %19 = load ptr, ptr %7, align 8, !tbaa !635
  %20 = icmp eq ptr %19, null
  br i1 %20, label %21, label %31

21:                                               ; preds = %3
  %22 = call noalias noundef ptr @_ZN6memory8allocateEm(i64 noundef 8)
  call void @llvm.memset.p0.i64(ptr align 8 %22, i8 0, i64 8, i1 false)
  call void @_ZN10ptr_vectorIN3smt9theory_pb4cardEEC2Ev(ptr noundef nonnull align 8 dereferenceable(8) %22) #3
  store ptr %22, ptr %7, align 8, !tbaa !635
  %23 = load ptr, ptr %7, align 8, !tbaa !635
  %24 = getelementptr inbounds nuw %"class.smt::theory_pb", ptr %9, i32 0, i32 3
  %25 = call noundef i32 @_ZNK3sat7literal3varEv(ptr noundef nonnull align 4 dereferenceable(4) %4)
  %26 = call noundef nonnull align 8 dereferenceable(48) ptr @_ZN6vectorIN3smt9theory_pb8var_infoELb0EjEixEj(ptr noundef nonnull align 8 dereferenceable(8) %24, i32 noundef %25)
  %27 = getelementptr inbounds nuw %"struct.smt::theory_pb::var_info", ptr %26, i32 0, i32 2
  %28 = call noundef zeroext i1 @_ZNK3sat7literal4signEv(ptr noundef nonnull align 4 dereferenceable(4) %4)
  %29 = zext i1 %28 to i64
  %30 = getelementptr inbounds nuw [2 x ptr], ptr %27, i64 0, i64 %29
  store ptr %23, ptr %30, align 8, !tbaa !635
  br label %31

31:                                               ; preds = %21, %3
  %32 = load ptr, ptr %7, align 8, !tbaa !635
  %33 = call noundef nonnull align 8 dereferenceable(8) ptr @_ZN6vectorIPN3smt9theory_pb4cardELb0EjE9push_backERKS3_(ptr noundef nonnull align 8 dereferenceable(8) %32, ptr noundef nonnull align 8 dereferenceable(8) %6)
  call void @llvm.lifetime.end.p0(i64 8, ptr %7) #3
  ret void
}